target datalayout = "e-m:e-p270:32:32-p271:32:32-p272:64:64-i64:64-i128:128-f80:128-n8:16:32:64-S128"
target triple = "x86_64-pc-linux-gnu"

; Function Attrs: mustprogress nounwind uwtable
define void @_ZN2c410mem_repeatEPvPKvmm(ptr noundef %0, ptr noundef %1, i64 noundef %2, i64 noundef %3) #0 {
  %5 = alloca ptr, align 8
  %6 = alloca ptr, align 8
  %7 = alloca i64, align 8
  %8 = alloca i64, align 8
  %9 = alloca ptr, align 8
  %10 = alloca ptr, align 8
  %11 = alloca i64, align 8
  store ptr %0, ptr %5, align 8, !tbaa !13
  store ptr %1, ptr %6, align 8, !tbaa !13
  store i64 %2, ptr %7, align 8, !tbaa !15
  store i64 %3, ptr %8, align 8, !tbaa !15
  %12 = load i64, ptr %8, align 8, !tbaa !15
  %13 = icmp eq i64 %12, 0
  %14 = zext i1 %13 to i64
  %15 = call i64 @llvm.expect.i64(i64 %14, i64 0)
  %16 = icmp ne i64 %15, 0
  br i1 %16, label %17, label %18

17:                                               ; preds = %4
  br label %63

18:                                               ; preds = %4
  call void @llvm.lifetime.start.p0(i64 8, ptr %9) #25
  %19 = load ptr, ptr %5, align 8, !tbaa !13
  store ptr %19, ptr %9, align 8, !tbaa !20
  call void @llvm.lifetime.start.p0(i64 8, ptr %10) #25
  %20 = load ptr, ptr %9, align 8, !tbaa !20
  %21 = load i64, ptr %8, align 8, !tbaa !15
  %22 = load i64, ptr %7, align 8, !tbaa !15
  %23 = mul i64 %21, %22
  %24 = getelementptr inbounds nuw i8, ptr %20, i64 %23
  store ptr %24, ptr %10, align 8, !tbaa !20
  %25 = load ptr, ptr %9, align 8, !tbaa !20
  %26 = load ptr, ptr %6, align 8, !tbaa !13
  %27 = load i64, ptr %7, align 8, !tbaa !15
  call void @llvm.memcpy.p0.p0.i64(ptr align 1 %25, ptr align 1 %26, i64 %27, i1 false)
  call void @llvm.lifetime.start.p0(i64 8, ptr %11) #25
  %28 = load i64, ptr %7, align 8, !tbaa !15
  store i64 %28, ptr %11, align 8, !tbaa !15
  br label %29

29:                                               ; preds = %36, %18
  %30 = load ptr, ptr %9, align 8, !tbaa !20
  %31 = load i64, ptr %11, align 8, !tbaa !15
  %32 = mul i64 2, %31
  %33 = getelementptr inbounds nuw i8, ptr %30, i64 %32
  %34 = load ptr, ptr %10, align 8, !tbaa !20
  %35 = icmp ult ptr %33, %34
  br i1 %35, label %36, label %44

36:                                               ; preds = %29
  %37 = load ptr, ptr %9, align 8, !tbaa !20
  %38 = load i64, ptr %11, align 8, !tbaa !15
  %39 = getelementptr inbounds nuw i8, ptr %37, i64 %38
  %40 = load ptr, ptr %9, align 8, !tbaa !20
  %41 = load i64, ptr %11, align 8, !tbaa !15
  call void @llvm.memcpy.p0.p0.i64(ptr align 1 %39, ptr align 1 %40, i64 %41, i1 false)
  %42 = load i64, ptr %11, align 8, !tbaa !15
  %43 = shl i64 %42, 1
  store i64 %43, ptr %11, align 8, !tbaa !15
  br label %29, !llvm.loop !47

44:                                               ; preds = %29
  %45 = load ptr, ptr %9, align 8, !tbaa !20
  %46 = load i64, ptr %11, align 8, !tbaa !15
  %47 = getelementptr inbounds nuw i8, ptr %45, i64 %46
  %48 = load ptr, ptr %10, align 8, !tbaa !20
  %49 = icmp ult ptr %47, %48
  br i1 %49, label %50, label %62

50:                                               ; preds = %44
  %51 = load ptr, ptr %9, align 8, !tbaa !20
  %52 = load i64, ptr %11, align 8, !tbaa !15
  %53 = getelementptr inbounds nuw i8, ptr %51, i64 %52
  %54 = load ptr, ptr %9, align 8, !tbaa !20
  %55 = load ptr, ptr %10, align 8, !tbaa !20
  %56 = load ptr, ptr %9, align 8, !tbaa !20
  %57 = load i64, ptr %11, align 8, !tbaa !15
  %58 = getelementptr inbounds nuw i8, ptr %56, i64 %57
  %59 = ptrtoint ptr %55 to i64
  %60 = ptrtoint ptr %58 to i64
  %61 = sub i64 %59, %60
  call void @llvm.memcpy.p0.p0.i64(ptr align 1 %53, ptr align 1 %54, i64 %61, i1 false)
  br label %62

62:                                               ; preds = %50, %44
  call void @llvm.lifetime.end.p0(i64 8, ptr %11) #25
  call void @llvm.lifetime.end.p0(i64 8, ptr %10) #25
  call void @llvm.lifetime.end.p0(i64 8, ptr %9) #25
  br label %63

63:                                               ; preds = %62, %17
  ret void
}