; Function Attrs: mustprogress nofree norecurse nosync nounwind memory(argmem: readwrite) uwtable
define void @_ZN2c410mem_repeatEPvPKvmm(ptr noundef captures(none) %0, ptr noundef readonly captures(none) %1, i64 noundef %2, i64 noundef %3) local_unnamed_addr #5 {
  %5 = icmp eq i64 %3, 0
  br i1 %5, label %17, label %6, !prof !27

6:                                                ; preds = %4
  %7 = mul i64 %3, %2
  tail call void @llvm.memcpy.p0.p0.i64(ptr align 1 %0, ptr align 1 %1, i64 %2, i1 false)
  %8 = shl i64 %2, 1
  %9 = icmp samesign ult i64 %8, %7
  br i1 %9, label %.lr.ph, label %._crit_edge

.lr.ph:                                           ; preds = %6, %.lr.ph
  %10 = phi i64 [ %12, %.lr.ph ], [ %8, %6 ]
  %.028 = phi i64 [ %10, %.lr.ph ], [ %2, %6 ]
  %11 = getelementptr inbounds nuw i8, ptr %0, i64 %.028
  tail call void @llvm.memcpy.p0.p0.i64(ptr align 1 %11, ptr align 1 %0, i64 %.028, i1 false)
  %12 = shl i64 %10, 1
  %13 = icmp samesign ult i64 %12, %7
  br i1 %13, label %.lr.ph, label %._crit_edge, !llvm.loop !28

._crit_edge:                                      ; preds = %.lr.ph, %6
  %.0.lcssa = phi i64 [ %2, %6 ], [ %10, %.lr.ph ]
  %14 = icmp samesign ult i64 %.0.lcssa, %7
  br i1 %14, label %15, label %17

15:                                               ; preds = %._crit_edge
  %16 = getelementptr inbounds nuw i8, ptr %0, i64 %.0.lcssa
  %gepdiff = sub nuw nsw i64 %7, %.0.lcssa
  tail call void @llvm.memcpy.p0.p0.i64(ptr align 1 %16, ptr align 1 %0, i64 %gepdiff, i1 false)
  br label %17

17:                                               ; preds = %._crit_edge, %15, %4
  ret void
}